(dp0
I0
(lp1
cnumpy.core.multiarray
scalar
p2
(cnumpy
dtype
p3
(S'S4'
p4
I0
I1
tp5
Rp6
(I3
S'|'
p7
NNNI4
I1
I0
tp8
bS'4226'
p9
tp10
Rp11
ag2
(g3
(S'S4'
p12
I0
I1
tp13
Rp14
(I3
S'|'
p15
NNNI4
I1
I0
tp16
bS'4296'
p17
tp18
Rp19
ag2
(g3
(S'S4'
p20
I0
I1
tp21
Rp22
(I3
S'|'
p23
NNNI4
I1
I0
tp24
bS'0723'
p25
tp26
Rp27
ag2
(g3
(S'S4'
p28
I0
I1
tp29
Rp30
(I3
S'|'
p31
NNNI4
I1
I0
tp32
bS'3810'
p33
tp34
Rp35
ag2
(g3
(S'S4'
p36
I0
I1
tp37
Rp38
(I3
S'|'
p39
NNNI4
I1
I0
tp40
bS'2586'
p41
tp42
Rp43
ag2
(g3
(S'S4'
p44
I0
I1
tp45
Rp46
(I3
S'|'
p47
NNNI4
I1
I0
tp48
bS'3922'
p49
tp50
Rp51
ag2
(g3
(S'S4'
p52
I0
I1
tp53
Rp54
(I3
S'|'
p55
NNNI4
I1
I0
tp56
bS'1216'
p57
tp58
Rp59
ag2
(g3
(S'S4'
p60
I0
I1
tp61
Rp62
(I3
S'|'
p63
NNNI4
I1
I0
tp64
bS'2701'
p65
tp66
Rp67
ag2
(g3
(S'S4'
p68
I0
I1
tp69
Rp70
(I3
S'|'
p71
NNNI4
I1
I0
tp72
bS'4084'
p73
tp74
Rp75
ag2
(g3
(S'S4'
p76
I0
I1
tp77
Rp78
(I3
S'|'
p79
NNNI4
I1
I0
tp80
bS'1112'
p81
tp82
Rp83
ag2
(g3
(S'S4'
p84
I0
I1
tp85
Rp86
(I3
S'|'
p87
NNNI4
I1
I0
tp88
bS'2959'
p89
tp90
Rp91
ag2
(g3
(S'S4'
p92
I0
I1
tp93
Rp94
(I3
S'|'
p95
NNNI4
I1
I0
tp96
bS'2296'
p97
tp98
Rp99
ag2
(g3
(S'S4'
p100
I0
I1
tp101
Rp102
(I3
S'|'
p103
NNNI4
I1
I0
tp104
bS'2466'
p105
tp106
Rp107
ag2
(g3
(S'S4'
p108
I0
I1
tp109
Rp110
(I3
S'|'
p111
NNNI4
I1
I0
tp112
bS'1180'
p113
tp114
Rp115
ag2
(g3
(S'S4'
p116
I0
I1
tp117
Rp118
(I3
S'|'
p119
NNNI4
I1
I0
tp120
bS'0086'
p121
tp122
Rp123
ag2
(g3
(S'S4'
p124
I0
I1
tp125
Rp126
(I3
S'|'
p127
NNNI4
I1
I0
tp128
bS'2733'
p129
tp130
Rp131
asI1
(lp132
g2
(g3
(S'S4'
p133
I0
I1
tp134
Rp135
(I3
S'|'
p136
NNNI4
I1
I0
tp137
bS'0503'
p138
tp139
Rp140
ag2
(g3
(S'S4'
p141
I0
I1
tp142
Rp143
(I3
S'|'
p144
NNNI4
I1
I0
tp145
bS'0252'
p146
tp147
Rp148
ag2
(g3
(S'S4'
p149
I0
I1
tp150
Rp151
(I3
S'|'
p152
NNNI4
I1
I0
tp153
bS'3969'
p154
tp155
Rp156
ag2
(g3
(S'S4'
p157
I0
I1
tp158
Rp159
(I3
S'|'
p160
NNNI4
I1
I0
tp161
bS'1493'
p162
tp163
Rp164
ag2
(g3
(S'S4'
p165
I0
I1
tp166
Rp167
(I3
S'|'
p168
NNNI4
I1
I0
tp169
bS'3922'
p170
tp171
Rp172
ag2
(g3
(S'S4'
p173
I0
I1
tp174
Rp175
(I3
S'|'
p176
NNNI4
I1
I0
tp177
bS'0328'
p178
tp179
Rp180
ag2
(g3
(S'S4'
p181
I0
I1
tp182
Rp183
(I3
S'|'
p184
NNNI4
I1
I0
tp185
bS'2193'
p186
tp187
Rp188
ag2
(g3
(S'S4'
p189
I0
I1
tp190
Rp191
(I3
S'|'
p192
NNNI4
I1
I0
tp193
bS'4201'
p194
tp195
Rp196
ag2
(g3
(S'S4'
p197
I0
I1
tp198
Rp199
(I3
S'|'
p200
NNNI4
I1
I0
tp201
bS'0738'
p202
tp203
Rp204
ag2
(g3
(S'S4'
p205
I0
I1
tp206
Rp207
(I3
S'|'
p208
NNNI4
I1
I0
tp209
bS'3988'
p210
tp211
Rp212
ag2
(g3
(S'S4'
p213
I0
I1
tp214
Rp215
(I3
S'|'
p216
NNNI4
I1
I0
tp217
bS'2034'
p218
tp219
Rp220
ag2
(g3
(S'S4'
p221
I0
I1
tp222
Rp223
(I3
S'|'
p224
NNNI4
I1
I0
tp225
bS'1495'
p226
tp227
Rp228
ag2
(g3
(S'S4'
p229
I0
I1
tp230
Rp231
(I3
S'|'
p232
NNNI4
I1
I0
tp233
bS'3950'
p234
tp235
Rp236
ag2
(g3
(S'S4'
p237
I0
I1
tp238
Rp239
(I3
S'|'
p240
NNNI4
I1
I0
tp241
bS'3612'
p242
tp243
Rp244
ag2
(g3
(S'S4'
p245
I0
I1
tp246
Rp247
(I3
S'|'
p248
NNNI4
I1
I0
tp249
bS'2613'
p250
tp251
Rp252
ag2
(g3
(S'S4'
p253
I0
I1
tp254
Rp255
(I3
S'|'
p256
NNNI4
I1
I0
tp257
bS'2794'
p258
tp259
Rp260
asI2
(lp261
g2
(g3
(S'S4'
p262
I0
I1
tp263
Rp264
(I3
S'|'
p265
NNNI4
I1
I0
tp266
bS'2007'
p267
tp268
Rp269
ag2
(g3
(S'S4'
p270
I0
I1
tp271
Rp272
(I3
S'|'
p273
NNNI4
I1
I0
tp274
bS'1695'
p275
tp276
Rp277
ag2
(g3
(S'S4'
p278
I0
I1
tp279
Rp280
(I3
S'|'
p281
NNNI4
I1
I0
tp282
bS'3315'
p283
tp284
Rp285
ag2
(g3
(S'S4'
p286
I0
I1
tp287
Rp288
(I3
S'|'
p289
NNNI4
I1
I0
tp290
bS'3082'
p291
tp292
Rp293
ag2
(g3
(S'S4'
p294
I0
I1
tp295
Rp296
(I3
S'|'
p297
NNNI4
I1
I0
tp298
bS'2323'
p299
tp300
Rp301
ag2
(g3
(S'S4'
p302
I0
I1
tp303
Rp304
(I3
S'|'
p305
NNNI4
I1
I0
tp306
bS'1668'
p307
tp308
Rp309
ag2
(g3
(S'S4'
p310
I0
I1
tp311
Rp312
(I3
S'|'
p313
NNNI4
I1
I0
tp314
bS'4047'
p315
tp316
Rp317
ag2
(g3
(S'S4'
p318
I0
I1
tp319
Rp320
(I3
S'|'
p321
NNNI4
I1
I0
tp322
bS'0979'
p323
tp324
Rp325
ag2
(g3
(S'S4'
p326
I0
I1
tp327
Rp328
(I3
S'|'
p329
NNNI4
I1
I0
tp330
bS'2565'
p331
tp332
Rp333
ag2
(g3
(S'S4'
p334
I0
I1
tp335
Rp336
(I3
S'|'
p337
NNNI4
I1
I0
tp338
bS'1573'
p339
tp340
Rp341
ag2
(g3
(S'S4'
p342
I0
I1
tp343
Rp344
(I3
S'|'
p345
NNNI4
I1
I0
tp346
bS'3283'
p347
tp348
Rp349
ag2
(g3
(S'S4'
p350
I0
I1
tp351
Rp352
(I3
S'|'
p353
NNNI4
I1
I0
tp354
bS'1743'
p355
tp356
Rp357
ag2
(g3
(S'S4'
p358
I0
I1
tp359
Rp360
(I3
S'|'
p361
NNNI4
I1
I0
tp362
bS'2794'
p363
tp364
Rp365
ag2
(g3
(S'S4'
p366
I0
I1
tp367
Rp368
(I3
S'|'
p369
NNNI4
I1
I0
tp370
bS'2878'
p371
tp372
Rp373
ag2
(g3
(S'S4'
p374
I0
I1
tp375
Rp376
(I3
S'|'
p377
NNNI4
I1
I0
tp378
bS'1540'
p379
tp380
Rp381
ag2
(g3
(S'S4'
p382
I0
I1
tp383
Rp384
(I3
S'|'
p385
NNNI4
I1
I0
tp386
bS'3346'
p387
tp388
Rp389
asI3
(lp390
g2
(g3
(S'S4'
p391
I0
I1
tp392
Rp393
(I3
S'|'
p394
NNNI4
I1
I0
tp395
bS'1821'
p396
tp397
Rp398
ag2
(g3
(S'S4'
p399
I0
I1
tp400
Rp401
(I3
S'|'
p402
NNNI4
I1
I0
tp403
bS'2383'
p404
tp405
Rp406
ag2
(g3
(S'S4'
p407
I0
I1
tp408
Rp409
(I3
S'|'
p410
NNNI4
I1
I0
tp411
bS'2701'
p412
tp413
Rp414
ag2
(g3
(S'S4'
p415
I0
I1
tp416
Rp417
(I3
S'|'
p418
NNNI4
I1
I0
tp419
bS'3444'
p420
tp421
Rp422
ag2
(g3
(S'S4'
p423
I0
I1
tp424
Rp425
(I3
S'|'
p426
NNNI4
I1
I0
tp427
bS'1329'
p428
tp429
Rp430
ag2
(g3
(S'S4'
p431
I0
I1
tp432
Rp433
(I3
S'|'
p434
NNNI4
I1
I0
tp435
bS'2921'
p436
tp437
Rp438
ag2
(g3
(S'S4'
p439
I0
I1
tp440
Rp441
(I3
S'|'
p442
NNNI4
I1
I0
tp443
bS'3284'
p444
tp445
Rp446
ag2
(g3
(S'S4'
p447
I0
I1
tp448
Rp449
(I3
S'|'
p450
NNNI4
I1
I0
tp451
bS'1962'
p452
tp453
Rp454
ag2
(g3
(S'S4'
p455
I0
I1
tp456
Rp457
(I3
S'|'
p458
NNNI4
I1
I0
tp459
bS'2466'
p460
tp461
Rp462
ag2
(g3
(S'S4'
p463
I0
I1
tp464
Rp465
(I3
S'|'
p466
NNNI4
I1
I0
tp467
bS'2523'
p468
tp469
Rp470
ag2
(g3
(S'S4'
p471
I0
I1
tp472
Rp473
(I3
S'|'
p474
NNNI4
I1
I0
tp475
bS'3082'
p476
tp477
Rp478
ag2
(g3
(S'S4'
p479
I0
I1
tp480
Rp481
(I3
S'|'
p482
NNNI4
I1
I0
tp483
bS'1743'
p484
tp485
Rp486
ag2
(g3
(S'S4'
p487
I0
I1
tp488
Rp489
(I3
S'|'
p490
NNNI4
I1
I0
tp491
bS'2266'
p492
tp493
Rp494
ag2
(g3
(S'S4'
p495
I0
I1
tp496
Rp497
(I3
S'|'
p498
NNNI4
I1
I0
tp499
bS'2530'
p500
tp501
Rp502
ag2
(g3
(S'S4'
p503
I0
I1
tp504
Rp505
(I3
S'|'
p506
NNNI4
I1
I0
tp507
bS'2514'
p508
tp509
Rp510
ag2
(g3
(S'S4'
p511
I0
I1
tp512
Rp513
(I3
S'|'
p514
NNNI4
I1
I0
tp515
bS'3856'
p516
tp517
Rp518
asI4
(lp519
g2
(g3
(S'S4'
p520
I0
I1
tp521
Rp522
(I3
S'|'
p523
NNNI4
I1
I0
tp524
bS'1703'
p525
tp526
Rp527
ag2
(g3
(S'S4'
p528
I0
I1
tp529
Rp530
(I3
S'|'
p531
NNNI4
I1
I0
tp532
bS'2648'
p533
tp534
Rp535
ag2
(g3
(S'S4'
p536
I0
I1
tp537
Rp538
(I3
S'|'
p539
NNNI4
I1
I0
tp540
bS'0252'
p541
tp542
Rp543
ag2
(g3
(S'S4'
p544
I0
I1
tp545
Rp546
(I3
S'|'
p547
NNNI4
I1
I0
tp548
bS'3264'
p549
tp550
Rp551
ag2
(g3
(S'S4'
p552
I0
I1
tp553
Rp554
(I3
S'|'
p555
NNNI4
I1
I0
tp556
bS'0116'
p557
tp558
Rp559
ag2
(g3
(S'S4'
p560
I0
I1
tp561
Rp562
(I3
S'|'
p563
NNNI4
I1
I0
tp564
bS'1101'
p565
tp566
Rp567
ag2
(g3
(S'S4'
p568
I0
I1
tp569
Rp570
(I3
S'|'
p571
NNNI4
I1
I0
tp572
bS'2733'
p573
tp574
Rp575
ag2
(g3
(S'S4'
p576
I0
I1
tp577
Rp578
(I3
S'|'
p579
NNNI4
I1
I0
tp580
bS'1638'
p581
tp582
Rp583
ag2
(g3
(S'S4'
p584
I0
I1
tp585
Rp586
(I3
S'|'
p587
NNNI4
I1
I0
tp588
bS'2323'
p589
tp590
Rp591
ag2
(g3
(S'S4'
p592
I0
I1
tp593
Rp594
(I3
S'|'
p595
NNNI4
I1
I0
tp596
bS'3785'
p597
tp598
Rp599
ag2
(g3
(S'S4'
p600
I0
I1
tp601
Rp602
(I3
S'|'
p603
NNNI4
I1
I0
tp604
bS'1743'
p605
tp606
Rp607
ag2
(g3
(S'S4'
p608
I0
I1
tp609
Rp610
(I3
S'|'
p611
NNNI4
I1
I0
tp612
bS'3397'
p613
tp614
Rp615
ag2
(g3
(S'S4'
p616
I0
I1
tp617
Rp618
(I3
S'|'
p619
NNNI4
I1
I0
tp620
bS'1962'
p621
tp622
Rp623
ag2
(g3
(S'S4'
p624
I0
I1
tp625
Rp626
(I3
S'|'
p627
NNNI4
I1
I0
tp628
bS'0071'
p629
tp630
Rp631
ag2
(g3
(S'S4'
p632
I0
I1
tp633
Rp634
(I3
S'|'
p635
NNNI4
I1
I0
tp636
bS'0806'
p637
tp638
Rp639
ag2
(g3
(S'S4'
p640
I0
I1
tp641
Rp642
(I3
S'|'
p643
NNNI4
I1
I0
tp644
bS'2654'
p645
tp646
Rp647
asI5
(lp648
g2
(g3
(S'S4'
p649
I0
I1
tp650
Rp651
(I3
S'|'
p652
NNNI4
I1
I0
tp653
bS'4076'
p654
tp655
Rp656
ag2
(g3
(S'S4'
p657
I0
I1
tp658
Rp659
(I3
S'|'
p660
NNNI4
I1
I0
tp661
bS'4095'
p662
tp663
Rp664
ag2
(g3
(S'S4'
p665
I0
I1
tp666
Rp667
(I3
S'|'
p668
NNNI4
I1
I0
tp669
bS'0252'
p670
tp671
Rp672
ag2
(g3
(S'S4'
p673
I0
I1
tp674
Rp675
(I3
S'|'
p676
NNNI4
I1
I0
tp677
bS'1112'
p678
tp679
Rp680
ag2
(g3
(S'S4'
p681
I0
I1
tp682
Rp683
(I3
S'|'
p684
NNNI4
I1
I0
tp685
bS'1703'
p686
tp687
Rp688
ag2
(g3
(S'S4'
p689
I0
I1
tp690
Rp691
(I3
S'|'
p692
NNNI4
I1
I0
tp693
bS'3391'
p694
tp695
Rp696
ag2
(g3
(S'S4'
p697
I0
I1
tp698
Rp699
(I3
S'|'
p700
NNNI4
I1
I0
tp701
bS'1573'
p702
tp703
Rp704
ag2
(g3
(S'S4'
p705
I0
I1
tp706
Rp707
(I3
S'|'
p708
NNNI4
I1
I0
tp709
bS'4303'
p710
tp711
Rp712
ag2
(g3
(S'S4'
p713
I0
I1
tp714
Rp715
(I3
S'|'
p716
NNNI4
I1
I0
tp717
bS'2959'
p718
tp719
Rp720
ag2
(g3
(S'S4'
p721
I0
I1
tp722
Rp723
(I3
S'|'
p724
NNNI4
I1
I0
tp725
bS'2519'
p726
tp727
Rp728
ag2
(g3
(S'S4'
p729
I0
I1
tp730
Rp731
(I3
S'|'
p732
NNNI4
I1
I0
tp733
bS'4155'
p734
tp735
Rp736
ag2
(g3
(S'S4'
p737
I0
I1
tp738
Rp739
(I3
S'|'
p740
NNNI4
I1
I0
tp741
bS'1153'
p742
tp743
Rp744
ag2
(g3
(S'S4'
p745
I0
I1
tp746
Rp747
(I3
S'|'
p748
NNNI4
I1
I0
tp749
bS'2955'
p750
tp751
Rp752
ag2
(g3
(S'S4'
p753
I0
I1
tp754
Rp755
(I3
S'|'
p756
NNNI4
I1
I0
tp757
bS'0247'
p758
tp759
Rp760
ag2
(g3
(S'S4'
p761
I0
I1
tp762
Rp763
(I3
S'|'
p764
NNNI4
I1
I0
tp765
bS'2201'
p766
tp767
Rp768
ag2
(g3
(S'S4'
p769
I0
I1
tp770
Rp771
(I3
S'|'
p772
NNNI4
I1
I0
tp773
bS'0633'
p774
tp775
Rp776
asI6
(lp777
g2
(g3
(S'S4'
p778
I0
I1
tp779
Rp780
(I3
S'|'
p781
NNNI4
I1
I0
tp782
bS'0826'
p783
tp784
Rp785
ag2
(g3
(S'S4'
p786
I0
I1
tp787
Rp788
(I3
S'|'
p789
NNNI4
I1
I0
tp790
bS'2634'
p791
tp792
Rp793
ag2
(g3
(S'S4'
p794
I0
I1
tp795
Rp796
(I3
S'|'
p797
NNNI4
I1
I0
tp798
bS'0619'
p799
tp800
Rp801
ag2
(g3
(S'S4'
p802
I0
I1
tp803
Rp804
(I3
S'|'
p805
NNNI4
I1
I0
tp806
bS'1028'
p807
tp808
Rp809
ag2
(g3
(S'S4'
p810
I0
I1
tp811
Rp812
(I3
S'|'
p813
NNNI4
I1
I0
tp814
bS'2334'
p815
tp816
Rp817
ag2
(g3
(S'S4'
p818
I0
I1
tp819
Rp820
(I3
S'|'
p821
NNNI4
I1
I0
tp822
bS'2480'
p823
tp824
Rp825
ag2
(g3
(S'S4'
p826
I0
I1
tp827
Rp828
(I3
S'|'
p829
NNNI4
I1
I0
tp830
bS'2648'
p831
tp832
Rp833
ag2
(g3
(S'S4'
p834
I0
I1
tp835
Rp836
(I3
S'|'
p837
NNNI4
I1
I0
tp838
bS'3950'
p839
tp840
Rp841
ag2
(g3
(S'S4'
p842
I0
I1
tp843
Rp844
(I3
S'|'
p845
NNNI4
I1
I0
tp846
bS'0510'
p847
tp848
Rp849
ag2
(g3
(S'S4'
p850
I0
I1
tp851
Rp852
(I3
S'|'
p853
NNNI4
I1
I0
tp854
bS'1756'
p855
tp856
Rp857
ag2
(g3
(S'S4'
p858
I0
I1
tp859
Rp860
(I3
S'|'
p861
NNNI4
I1
I0
tp862
bS'3096'
p863
tp864
Rp865
ag2
(g3
(S'S4'
p866
I0
I1
tp867
Rp868
(I3
S'|'
p869
NNNI4
I1
I0
tp870
bS'2335'
p871
tp872
Rp873
ag2
(g3
(S'S4'
p874
I0
I1
tp875
Rp876
(I3
S'|'
p877
NNNI4
I1
I0
tp878
bS'3969'
p879
tp880
Rp881
ag2
(g3
(S'S4'
p882
I0
I1
tp883
Rp884
(I3
S'|'
p885
NNNI4
I1
I0
tp886
bS'4062'
p887
tp888
Rp889
ag2
(g3
(S'S4'
p890
I0
I1
tp891
Rp892
(I3
S'|'
p893
NNNI4
I1
I0
tp894
bS'1695'
p895
tp896
Rp897
ag2
(g3
(S'S4'
p898
I0
I1
tp899
Rp900
(I3
S'|'
p901
NNNI4
I1
I0
tp902
bS'2466'
p903
tp904
Rp905
asI7
(lp906
g2
(g3
(S'S4'
p907
I0
I1
tp908
Rp909
(I3
S'|'
p910
NNNI4
I1
I0
tp911
bS'0201'
p912
tp913
Rp914
ag2
(g3
(S'S4'
p915
I0
I1
tp916
Rp917
(I3
S'|'
p918
NNNI4
I1
I0
tp919
bS'3254'
p920
tp921
Rp922
ag2
(g3
(S'S4'
p923
I0
I1
tp924
Rp925
(I3
S'|'
p926
NNNI4
I1
I0
tp927
bS'3346'
p928
tp929
Rp930
ag2
(g3
(S'S4'
p931
I0
I1
tp932
Rp933
(I3
S'|'
p934
NNNI4
I1
I0
tp935
bS'1112'
p936
tp937
Rp938
ag2
(g3
(S'S4'
p939
I0
I1
tp940
Rp941
(I3
S'|'
p942
NNNI4
I1
I0
tp943
bS'1750'
p944
tp945
Rp946
ag2
(g3
(S'S4'
p947
I0
I1
tp948
Rp949
(I3
S'|'
p950
NNNI4
I1
I0
tp951
bS'1489'
p952
tp953
Rp954
ag2
(g3
(S'S4'
p955
I0
I1
tp956
Rp957
(I3
S'|'
p958
NNNI4
I1
I0
tp959
bS'4226'
p960
tp961
Rp962
ag2
(g3
(S'S4'
p963
I0
I1
tp964
Rp965
(I3
S'|'
p966
NNNI4
I1
I0
tp967
bS'0750'
p968
tp969
Rp970
ag2
(g3
(S'S4'
p971
I0
I1
tp972
Rp973
(I3
S'|'
p974
NNNI4
I1
I0
tp975
bS'4256'
p976
tp977
Rp978
ag2
(g3
(S'S4'
p979
I0
I1
tp980
Rp981
(I3
S'|'
p982
NNNI4
I1
I0
tp983
bS'4296'
p984
tp985
Rp986
ag2
(g3
(S'S4'
p987
I0
I1
tp988
Rp989
(I3
S'|'
p990
NNNI4
I1
I0
tp991
bS'1191'
p992
tp993
Rp994
ag2
(g3
(S'S4'
p995
I0
I1
tp996
Rp997
(I3
S'|'
p998
NNNI4
I1
I0
tp999
bS'4272'
p1000
tp1001
Rp1002
ag2
(g3
(S'S4'
p1003
I0
I1
tp1004
Rp1005
(I3
S'|'
p1006
NNNI4
I1
I0
tp1007
bS'4201'
p1008
tp1009
Rp1010
ag2
(g3
(S'S4'
p1011
I0
I1
tp1012
Rp1013
(I3
S'|'
p1014
NNNI4
I1
I0
tp1015
bS'4175'
p1016
tp1017
Rp1018
ag2
(g3
(S'S4'
p1019
I0
I1
tp1020
Rp1021
(I3
S'|'
p1022
NNNI4
I1
I0
tp1023
bS'0722'
p1024
tp1025
Rp1026
ag2
(g3
(S'S4'
p1027
I0
I1
tp1028
Rp1029
(I3
S'|'
p1030
NNNI4
I1
I0
tp1031
bS'0086'
p1032
tp1033
Rp1034
asI8
(lp1035
g2
(g3
(S'S4'
p1036
I0
I1
tp1037
Rp1038
(I3
S'|'
p1039
NNNI4
I1
I0
tp1040
bS'1798'
p1041
tp1042
Rp1043
ag2
(g3
(S'S4'
p1044
I0
I1
tp1045
Rp1046
(I3
S'|'
p1047
NNNI4
I1
I0
tp1048
bS'2586'
p1049
tp1050
Rp1051
ag2
(g3
(S'S4'
p1052
I0
I1
tp1053
Rp1054
(I3
S'|'
p1055
NNNI4
I1
I0
tp1056
bS'3870'
p1057
tp1058
Rp1059
ag2
(g3
(S'S4'
p1060
I0
I1
tp1061
Rp1062
(I3
S'|'
p1063
NNNI4
I1
I0
tp1064
bS'1166'
p1065
tp1066
Rp1067
ag2
(g3
(S'S4'
p1068
I0
I1
tp1069
Rp1070
(I3
S'|'
p1071
NNNI4
I1
I0
tp1072
bS'1008'
p1073
tp1074
Rp1075
ag2
(g3
(S'S4'
p1076
I0
I1
tp1077
Rp1078
(I3
S'|'
p1079
NNNI4
I1
I0
tp1080
bS'3334'
p1081
tp1082
Rp1083
ag2
(g3
(S'S4'
p1084
I0
I1
tp1085
Rp1086
(I3
S'|'
p1087
NNNI4
I1
I0
tp1088
bS'4272'
p1089
tp1090
Rp1091
ag2
(g3
(S'S4'
p1092
I0
I1
tp1093
Rp1094
(I3
S'|'
p1095
NNNI4
I1
I0
tp1096
bS'1897'
p1097
tp1098
Rp1099
ag2
(g3
(S'S4'
p1100
I0
I1
tp1101
Rp1102
(I3
S'|'
p1103
NNNI4
I1
I0
tp1104
bS'3190'
p1105
tp1106
Rp1107
ag2
(g3
(S'S4'
p1108
I0
I1
tp1109
Rp1110
(I3
S'|'
p1111
NNNI4
I1
I0
tp1112
bS'2693'
p1113
tp1114
Rp1115
ag2
(g3
(S'S4'
p1116
I0
I1
tp1117
Rp1118
(I3
S'|'
p1119
NNNI4
I1
I0
tp1120
bS'1112'
p1121
tp1122
Rp1123
ag2
(g3
(S'S4'
p1124
I0
I1
tp1125
Rp1126
(I3
S'|'
p1127
NNNI4
I1
I0
tp1128
bS'3932'
p1129
tp1130
Rp1131
ag2
(g3
(S'S4'
p1132
I0
I1
tp1133
Rp1134
(I3
S'|'
p1135
NNNI4
I1
I0
tp1136
bS'3470'
p1137
tp1138
Rp1139
ag2
(g3
(S'S4'
p1140
I0
I1
tp1141
Rp1142
(I3
S'|'
p1143
NNNI4
I1
I0
tp1144
bS'1610'
p1145
tp1146
Rp1147
ag2
(g3
(S'S4'
p1148
I0
I1
tp1149
Rp1150
(I3
S'|'
p1151
NNNI4
I1
I0
tp1152
bS'1962'
p1153
tp1154
Rp1155
ag2
(g3
(S'S4'
p1156
I0
I1
tp1157
Rp1158
(I3
S'|'
p1159
NNNI4
I1
I0
tp1160
bS'3969'
p1161
tp1162
Rp1163
asI9
(lp1164
g2
(g3
(S'S4'
p1165
I0
I1
tp1166
Rp1167
(I3
S'|'
p1168
NNNI4
I1
I0
tp1169
bS'3237'
p1170
tp1171
Rp1172
ag2
(g3
(S'S4'
p1173
I0
I1
tp1174
Rp1175
(I3
S'|'
p1176
NNNI4
I1
I0
tp1177
bS'2634'
p1178
tp1179
Rp1180
ag2
(g3
(S'S4'
p1181
I0
I1
tp1182
Rp1183
(I3
S'|'
p1184
NNNI4
I1
I0
tp1185
bS'1153'
p1186
tp1187
Rp1188
ag2
(g3
(S'S4'
p1189
I0
I1
tp1190
Rp1191
(I3
S'|'
p1192
NNNI4
I1
I0
tp1193
bS'2480'
p1194
tp1195
Rp1196
ag2
(g3
(S'S4'
p1197
I0
I1
tp1198
Rp1199
(I3
S'|'
p1200
NNNI4
I1
I0
tp1201
bS'3053'
p1202
tp1203
Rp1204
ag2
(g3
(S'S4'
p1205
I0
I1
tp1206
Rp1207
(I3
S'|'
p1208
NNNI4
I1
I0
tp1209
bS'0900'
p1210
tp1211
Rp1212
ag2
(g3
(S'S4'
p1213
I0
I1
tp1214
Rp1215
(I3
S'|'
p1216
NNNI4
I1
I0
tp1217
bS'1158'
p1218
tp1219
Rp1220
ag2
(g3
(S'S4'
p1221
I0
I1
tp1222
Rp1223
(I3
S'|'
p1224
NNNI4
I1
I0
tp1225
bS'3737'
p1226
tp1227
Rp1228
ag2
(g3
(S'S4'
p1229
I0
I1
tp1230
Rp1231
(I3
S'|'
p1232
NNNI4
I1
I0
tp1233
bS'3187'
p1234
tp1235
Rp1236
ag2
(g3
(S'S4'
p1237
I0
I1
tp1238
Rp1239
(I3
S'|'
p1240
NNNI4
I1
I0
tp1241
bS'2209'
p1242
tp1243
Rp1244
ag2
(g3
(S'S4'
p1245
I0
I1
tp1246
Rp1247
(I3
S'|'
p1248
NNNI4
I1
I0
tp1249
bS'3031'
p1250
tp1251
Rp1252
ag2
(g3
(S'S4'
p1253
I0
I1
tp1254
Rp1255
(I3
S'|'
p1256
NNNI4
I1
I0
tp1257
bS'3612'
p1258
tp1259
Rp1260
ag2
(g3
(S'S4'
p1261
I0
I1
tp1262
Rp1263
(I3
S'|'
p1264
NNNI4
I1
I0
tp1265
bS'2507'
p1266
tp1267
Rp1268
ag2
(g3
(S'S4'
p1269
I0
I1
tp1270
Rp1271
(I3
S'|'
p1272
NNNI4
I1
I0
tp1273
bS'1757'
p1274
tp1275
Rp1276
ag2
(g3
(S'S4'
p1277
I0
I1
tp1278
Rp1279
(I3
S'|'
p1280
NNNI4
I1
I0
tp1281
bS'0589'
p1282
tp1283
Rp1284
ag2
(g3
(S'S4'
p1285
I0
I1
tp1286
Rp1287
(I3
S'|'
p1288
NNNI4
I1
I0
tp1289
bS'1897'
p1290
tp1291
Rp1292
asI10
(lp1293
g2
(g3
(S'S4'
p1294
I0
I1
tp1295
Rp1296
(I3
S'|'
p1297
NNNI4
I1
I0
tp1298
bS'0510'
p1299
tp1300
Rp1301
ag2
(g3
(S'S4'
p1302
I0
I1
tp1303
Rp1304
(I3
S'|'
p1305
NNNI4
I1
I0
tp1306
bS'2266'
p1307
tp1308
Rp1309
ag2
(g3
(S'S4'
p1310
I0
I1
tp1311
Rp1312
(I3
S'|'
p1313
NNNI4
I1
I0
tp1314
bS'3096'
p1315
tp1316
Rp1317
ag2
(g3
(S'S4'
p1318
I0
I1
tp1319
Rp1320
(I3
S'|'
p1321
NNNI4
I1
I0
tp1322
bS'3875'
p1323
tp1324
Rp1325
ag2
(g3
(S'S4'
p1326
I0
I1
tp1327
Rp1328
(I3
S'|'
p1329
NNNI4
I1
I0
tp1330
bS'2312'
p1331
tp1332
Rp1333
ag2
(g3
(S'S4'
p1334
I0
I1
tp1335
Rp1336
(I3
S'|'
p1337
NNNI4
I1
I0
tp1338
bS'3346'
p1339
tp1340
Rp1341
ag2
(g3
(S'S4'
p1342
I0
I1
tp1343
Rp1344
(I3
S'|'
p1345
NNNI4
I1
I0
tp1346
bS'4201'
p1347
tp1348
Rp1349
ag2
(g3
(S'S4'
p1350
I0
I1
tp1351
Rp1352
(I3
S'|'
p1353
NNNI4
I1
I0
tp1354
bS'3278'
p1355
tp1356
Rp1357
ag2
(g3
(S'S4'
p1358
I0
I1
tp1359
Rp1360
(I3
S'|'
p1361
NNNI4
I1
I0
tp1362
bS'4297'
p1363
tp1364
Rp1365
ag2
(g3
(S'S4'
p1366
I0
I1
tp1367
Rp1368
(I3
S'|'
p1369
NNNI4
I1
I0
tp1370
bS'2323'
p1371
tp1372
Rp1373
ag2
(g3
(S'S4'
p1374
I0
I1
tp1375
Rp1376
(I3
S'|'
p1377
NNNI4
I1
I0
tp1378
bS'0723'
p1379
tp1380
Rp1381
ag2
(g3
(S'S4'
p1382
I0
I1
tp1383
Rp1384
(I3
S'|'
p1385
NNNI4
I1
I0
tp1386
bS'1005'
p1387
tp1388
Rp1389
ag2
(g3
(S'S4'
p1390
I0
I1
tp1391
Rp1392
(I3
S'|'
p1393
NNNI4
I1
I0
tp1394
bS'3315'
p1395
tp1396
Rp1397
ag2
(g3
(S'S4'
p1398
I0
I1
tp1399
Rp1400
(I3
S'|'
p1401
NNNI4
I1
I0
tp1402
bS'3477'
p1403
tp1404
Rp1405
ag2
(g3
(S'S4'
p1406
I0
I1
tp1407
Rp1408
(I3
S'|'
p1409
NNNI4
I1
I0
tp1410
bS'1927'
p1411
tp1412
Rp1413
ag2
(g3
(S'S4'
p1414
I0
I1
tp1415
Rp1416
(I3
S'|'
p1417
NNNI4
I1
I0
tp1418
bS'3444'
p1419
tp1420
Rp1421
asI11
(lp1422
g2
(g3
(S'S4'
p1423
I0
I1
tp1424
Rp1425
(I3
S'|'
p1426
NNNI4
I1
I0
tp1427
bS'1541'
p1428
tp1429
Rp1430
ag2
(g3
(S'S4'
p1431
I0
I1
tp1432
Rp1433
(I3
S'|'
p1434
NNNI4
I1
I0
tp1435
bS'4047'
p1436
tp1437
Rp1438
ag2
(g3
(S'S4'
p1439
I0
I1
tp1440
Rp1441
(I3
S'|'
p1442
NNNI4
I1
I0
tp1443
bS'2007'
p1444
tp1445
Rp1446
ag2
(g3
(S'S4'
p1447
I0
I1
tp1448
Rp1449
(I3
S'|'
p1450
NNNI4
I1
I0
tp1451
bS'1181'
p1452
tp1453
Rp1454
ag2
(g3
(S'S4'
p1455
I0
I1
tp1456
Rp1457
(I3
S'|'
p1458
NNNI4
I1
I0
tp1459
bS'3668'
p1460
tp1461
Rp1462
ag2
(g3
(S'S4'
p1463
I0
I1
tp1464
Rp1465
(I3
S'|'
p1466
NNNI4
I1
I0
tp1467
bS'0407'
p1468
tp1469
Rp1470
ag2
(g3
(S'S4'
p1471
I0
I1
tp1472
Rp1473
(I3
S'|'
p1474
NNNI4
I1
I0
tp1475
bS'0503'
p1476
tp1477
Rp1478
ag2
(g3
(S'S4'
p1479
I0
I1
tp1480
Rp1481
(I3
S'|'
p1482
NNNI4
I1
I0
tp1483
bS'3823'
p1484
tp1485
Rp1486
ag2
(g3
(S'S4'
p1487
I0
I1
tp1488
Rp1489
(I3
S'|'
p1490
NNNI4
I1
I0
tp1491
bS'2336'
p1492
tp1493
Rp1494
ag2
(g3
(S'S4'
p1495
I0
I1
tp1496
Rp1497
(I3
S'|'
p1498
NNNI4
I1
I0
tp1499
bS'2519'
p1500
tp1501
Rp1502
ag2
(g3
(S'S4'
p1503
I0
I1
tp1504
Rp1505
(I3
S'|'
p1506
NNNI4
I1
I0
tp1507
bS'0071'
p1508
tp1509
Rp1510
ag2
(g3
(S'S4'
p1511
I0
I1
tp1512
Rp1513
(I3
S'|'
p1514
NNNI4
I1
I0
tp1515
bS'0835'
p1516
tp1517
Rp1518
ag2
(g3
(S'S4'
p1519
I0
I1
tp1520
Rp1521
(I3
S'|'
p1522
NNNI4
I1
I0
tp1523
bS'1495'
p1524
tp1525
Rp1526
ag2
(g3
(S'S4'
p1527
I0
I1
tp1528
Rp1529
(I3
S'|'
p1530
NNNI4
I1
I0
tp1531
bS'2335'
p1532
tp1533
Rp1534
ag2
(g3
(S'S4'
p1535
I0
I1
tp1536
Rp1537
(I3
S'|'
p1538
NNNI4
I1
I0
tp1539
bS'0542'
p1540
tp1541
Rp1542
ag2
(g3
(S'S4'
p1543
I0
I1
tp1544
Rp1545
(I3
S'|'
p1546
NNNI4
I1
I0
tp1547
bS'1112'
p1548
tp1549
Rp1550
asI12
(lp1551
g2
(g3
(S'S4'
p1552
I0
I1
tp1553
Rp1554
(I3
S'|'
p1555
NNNI4
I1
I0
tp1556
bS'1028'
p1557
tp1558
Rp1559
ag2
(g3
(S'S4'
p1560
I0
I1
tp1561
Rp1562
(I3
S'|'
p1563
NNNI4
I1
I0
tp1564
bS'3470'
p1565
tp1566
Rp1567
ag2
(g3
(S'S4'
p1568
I0
I1
tp1569
Rp1570
(I3
S'|'
p1571
NNNI4
I1
I0
tp1572
bS'0826'
p1573
tp1574
Rp1575
ag2
(g3
(S'S4'
p1576
I0
I1
tp1577
Rp1578
(I3
S'|'
p1579
NNNI4
I1
I0
tp1580
bS'3477'
p1581
tp1582
Rp1583
ag2
(g3
(S'S4'
p1584
I0
I1
tp1585
Rp1586
(I3
S'|'
p1587
NNNI4
I1
I0
tp1588
bS'0252'
p1589
tp1590
Rp1591
ag2
(g3
(S'S4'
p1592
I0
I1
tp1593
Rp1594
(I3
S'|'
p1595
NNNI4
I1
I0
tp1596
bS'2007'
p1597
tp1598
Rp1599
ag2
(g3
(S'S4'
p1600
I0
I1
tp1601
Rp1602
(I3
S'|'
p1603
NNNI4
I1
I0
tp1604
bS'2585'
p1605
tp1606
Rp1607
ag2
(g3
(S'S4'
p1608
I0
I1
tp1609
Rp1610
(I3
S'|'
p1611
NNNI4
I1
I0
tp1612
bS'0201'
p1613
tp1614
Rp1615
ag2
(g3
(S'S4'
p1616
I0
I1
tp1617
Rp1618
(I3
S'|'
p1619
NNNI4
I1
I0
tp1620
bS'3871'
p1621
tp1622
Rp1623
ag2
(g3
(S'S4'
p1624
I0
I1
tp1625
Rp1626
(I3
S'|'
p1627
NNNI4
I1
I0
tp1628
bS'0830'
p1629
tp1630
Rp1631
ag2
(g3
(S'S4'
p1632
I0
I1
tp1633
Rp1634
(I3
S'|'
p1635
NNNI4
I1
I0
tp1636
bS'3151'
p1637
tp1638
Rp1639
ag2
(g3
(S'S4'
p1640
I0
I1
tp1641
Rp1642
(I3
S'|'
p1643
NNNI4
I1
I0
tp1644
bS'2363'
p1645
tp1646
Rp1647
ag2
(g3
(S'S4'
p1648
I0
I1
tp1649
Rp1650
(I3
S'|'
p1651
NNNI4
I1
I0
tp1652
bS'0702'
p1653
tp1654
Rp1655
ag2
(g3
(S'S4'
p1656
I0
I1
tp1657
Rp1658
(I3
S'|'
p1659
NNNI4
I1
I0
tp1660
bS'0435'
p1661
tp1662
Rp1663
ag2
(g3
(S'S4'
p1664
I0
I1
tp1665
Rp1666
(I3
S'|'
p1667
NNNI4
I1
I0
tp1668
bS'0086'
p1669
tp1670
Rp1671
ag2
(g3
(S'S4'
p1672
I0
I1
tp1673
Rp1674
(I3
S'|'
p1675
NNNI4
I1
I0
tp1676
bS'3801'
p1677
tp1678
Rp1679
asI13
(lp1680
g2
(g3
(S'S4'
p1681
I0
I1
tp1682
Rp1683
(I3
S'|'
p1684
NNNI4
I1
I0
tp1685
bS'1962'
p1686
tp1687
Rp1688
ag2
(g3
(S'S4'
p1689
I0
I1
tp1690
Rp1691
(I3
S'|'
p1692
NNNI4
I1
I0
tp1693
bS'0476'
p1694
tp1695
Rp1696
ag2
(g3
(S'S4'
p1697
I0
I1
tp1698
Rp1699
(I3
S'|'
p1700
NNNI4
I1
I0
tp1701
bS'1166'
p1702
tp1703
Rp1704
ag2
(g3
(S'S4'
p1705
I0
I1
tp1706
Rp1707
(I3
S'|'
p1708
NNNI4
I1
I0
tp1709
bS'0114'
p1710
tp1711
Rp1712
ag2
(g3
(S'S4'
p1713
I0
I1
tp1714
Rp1715
(I3
S'|'
p1716
NNNI4
I1
I0
tp1717
bS'1095'
p1718
tp1719
Rp1720
ag2
(g3
(S'S4'
p1721
I0
I1
tp1722
Rp1723
(I3
S'|'
p1724
NNNI4
I1
I0
tp1725
bS'2523'
p1726
tp1727
Rp1728
ag2
(g3
(S'S4'
p1729
I0
I1
tp1730
Rp1731
(I3
S'|'
p1732
NNNI4
I1
I0
tp1733
bS'0503'
p1734
tp1735
Rp1736
ag2
(g3
(S'S4'
p1737
I0
I1
tp1738
Rp1739
(I3
S'|'
p1740
NNNI4
I1
I0
tp1741
bS'0510'
p1742
tp1743
Rp1744
ag2
(g3
(S'S4'
p1745
I0
I1
tp1746
Rp1747
(I3
S'|'
p1748
NNNI4
I1
I0
tp1749
bS'2878'
p1750
tp1751
Rp1752
ag2
(g3
(S'S4'
p1753
I0
I1
tp1754
Rp1755
(I3
S'|'
p1756
NNNI4
I1
I0
tp1757
bS'0788'
p1758
tp1759
Rp1760
ag2
(g3
(S'S4'
p1761
I0
I1
tp1762
Rp1763
(I3
S'|'
p1764
NNNI4
I1
I0
tp1765
bS'2161'
p1766
tp1767
Rp1768
ag2
(g3
(S'S4'
p1769
I0
I1
tp1770
Rp1771
(I3
S'|'
p1772
NNNI4
I1
I0
tp1773
bS'2693'
p1774
tp1775
Rp1776
ag2
(g3
(S'S4'
p1777
I0
I1
tp1778
Rp1779
(I3
S'|'
p1780
NNNI4
I1
I0
tp1781
bS'3066'
p1782
tp1783
Rp1784
ag2
(g3
(S'S4'
p1785
I0
I1
tp1786
Rp1787
(I3
S'|'
p1788
NNNI4
I1
I0
tp1789
bS'3769'
p1790
tp1791
Rp1792
ag2
(g3
(S'S4'
p1793
I0
I1
tp1794
Rp1795
(I3
S'|'
p1796
NNNI4
I1
I0
tp1797
bS'2733'
p1798
tp1799
Rp1800
ag2
(g3
(S'S4'
p1801
I0
I1
tp1802
Rp1803
(I3
S'|'
p1804
NNNI4
I1
I0
tp1805
bS'2462'
p1806
tp1807
Rp1808
asI14
(lp1809
g2
(g3
(S'S4'
p1810
I0
I1
tp1811
Rp1812
(I3
S'|'
p1813
NNNI4
I1
I0
tp1814
bS'3104'
p1815
tp1816
Rp1817
ag2
(g3
(S'S4'
p1818
I0
I1
tp1819
Rp1820
(I3
S'|'
p1821
NNNI4
I1
I0
tp1822
bS'1242'
p1823
tp1824
Rp1825
ag2
(g3
(S'S4'
p1826
I0
I1
tp1827
Rp1828
(I3
S'|'
p1829
NNNI4
I1
I0
tp1830
bS'1181'
p1831
tp1832
Rp1833
ag2
(g3
(S'S4'
p1834
I0
I1
tp1835
Rp1836
(I3
S'|'
p1837
NNNI4
I1
I0
tp1838
bS'2799'
p1839
tp1840
Rp1841
ag2
(g3
(S'S4'
p1842
I0
I1
tp1843
Rp1844
(I3
S'|'
p1845
NNNI4
I1
I0
tp1846
bS'1436'
p1847
tp1848
Rp1849
ag2
(g3
(S'S4'
p1850
I0
I1
tp1851
Rp1852
(I3
S'|'
p1853
NNNI4
I1
I0
tp1854
bS'0359'
p1855
tp1856
Rp1857
ag2
(g3
(S'S4'
p1858
I0
I1
tp1859
Rp1860
(I3
S'|'
p1861
NNNI4
I1
I0
tp1862
bS'1153'
p1863
tp1864
Rp1865
ag2
(g3
(S'S4'
p1866
I0
I1
tp1867
Rp1868
(I3
S'|'
p1869
NNNI4
I1
I0
tp1870
bS'3837'
p1871
tp1872
Rp1873
ag2
(g3
(S'S4'
p1874
I0
I1
tp1875
Rp1876
(I3
S'|'
p1877
NNNI4
I1
I0
tp1878
bS'0826'
p1879
tp1880
Rp1881
ag2
(g3
(S'S4'
p1882
I0
I1
tp1883
Rp1884
(I3
S'|'
p1885
NNNI4
I1
I0
tp1886
bS'3031'
p1887
tp1888
Rp1889
ag2
(g3
(S'S4'
p1890
I0
I1
tp1891
Rp1892
(I3
S'|'
p1893
NNNI4
I1
I0
tp1894
bS'3823'
p1895
tp1896
Rp1897
ag2
(g3
(S'S4'
p1898
I0
I1
tp1899
Rp1900
(I3
S'|'
p1901
NNNI4
I1
I0
tp1902
bS'0503'
p1903
tp1904
Rp1905
ag2
(g3
(S'S4'
p1906
I0
I1
tp1907
Rp1908
(I3
S'|'
p1909
NNNI4
I1
I0
tp1910
bS'0702'
p1911
tp1912
Rp1913
ag2
(g3
(S'S4'
p1914
I0
I1
tp1915
Rp1916
(I3
S'|'
p1917
NNNI4
I1
I0
tp1918
bS'2377'
p1919
tp1920
Rp1921
ag2
(g3
(S'S4'
p1922
I0
I1
tp1923
Rp1924
(I3
S'|'
p1925
NNNI4
I1
I0
tp1926
bS'0830'
p1927
tp1928
Rp1929
ag2
(g3
(S'S4'
p1930
I0
I1
tp1931
Rp1932
(I3
S'|'
p1933
NNNI4
I1
I0
tp1934
bS'2855'
p1935
tp1936
Rp1937
asI15
(lp1938
g2
(g3
(S'S4'
p1939
I0
I1
tp1940
Rp1941
(I3
S'|'
p1942
NNNI4
I1
I0
tp1943
bS'1743'
p1944
tp1945
Rp1946
ag2
(g3
(S'S4'
p1947
I0
I1
tp1948
Rp1949
(I3
S'|'
p1950
NNNI4
I1
I0
tp1951
bS'1329'
p1952
tp1953
Rp1954
ag2
(g3
(S'S4'
p1955
I0
I1
tp1956
Rp1957
(I3
S'|'
p1958
NNNI4
I1
I0
tp1959
bS'1520'
p1960
tp1961
Rp1962
ag2
(g3
(S'S4'
p1963
I0
I1
tp1964
Rp1965
(I3
S'|'
p1966
NNNI4
I1
I0
tp1967
bS'0802'
p1968
tp1969
Rp1970
ag2
(g3
(S'S4'
p1971
I0
I1
tp1972
Rp1973
(I3
S'|'
p1974
NNNI4
I1
I0
tp1975
bS'4022'
p1976
tp1977
Rp1978
ag2
(g3
(S'S4'
p1979
I0
I1
tp1980
Rp1981
(I3
S'|'
p1982
NNNI4
I1
I0
tp1983
bS'0116'
p1984
tp1985
Rp1986
ag2
(g3
(S'S4'
p1987
I0
I1
tp1988
Rp1989
(I3
S'|'
p1990
NNNI4
I1
I0
tp1991
bS'0750'
p1992
tp1993
Rp1994
ag2
(g3
(S'S4'
p1995
I0
I1
tp1996
Rp1997
(I3
S'|'
p1998
NNNI4
I1
I0
tp1999
bS'1526'
p2000
tp2001
Rp2002
ag2
(g3
(S'S4'
p2003
I0
I1
tp2004
Rp2005
(I3
S'|'
p2006
NNNI4
I1
I0
tp2007
bS'2193'
p2008
tp2009
Rp2010
ag2
(g3
(S'S4'
p2011
I0
I1
tp2012
Rp2013
(I3
S'|'
p2014
NNNI4
I1
I0
tp2015
bS'2878'
p2016
tp2017
Rp2018
ag2
(g3
(S'S4'
p2019
I0
I1
tp2020
Rp2021
(I3
S'|'
p2022
NNNI4
I1
I0
tp2023
bS'1668'
p2024
tp2025
Rp2026
ag2
(g3
(S'S4'
p2027
I0
I1
tp2028
Rp2029
(I3
S'|'
p2030
NNNI4
I1
I0
tp2031
bS'2648'
p2032
tp2033
Rp2034
ag2
(g3
(S'S4'
p2035
I0
I1
tp2036
Rp2037
(I3
S'|'
p2038
NNNI4
I1
I0
tp2039
bS'2799'
p2040
tp2041
Rp2042
ag2
(g3
(S'S4'
p2043
I0
I1
tp2044
Rp2045
(I3
S'|'
p2046
NNNI4
I1
I0
tp2047
bS'1486'
p2048
tp2049
Rp2050
ag2
(g3
(S'S4'
p2051
I0
I1
tp2052
Rp2053
(I3
S'|'
p2054
NNNI4
I1
I0
tp2055
bS'2733'
p2056
tp2057
Rp2058
ag2
(g3
(S'S4'
p2059
I0
I1
tp2060
Rp2061
(I3
S'|'
p2062
NNNI4
I1
I0
tp2063
bS'2413'
p2064
tp2065
Rp2066
asI16
(lp2067
g2
(g3
(S'S4'
p2068
I0
I1
tp2069
Rp2070
(I3
S'|'
p2071
NNNI4
I1
I0
tp2072
bS'1962'
p2073
tp2074
Rp2075
ag2
(g3
(S'S4'
p2076
I0
I1
tp2077
Rp2078
(I3
S'|'
p2079
NNNI4
I1
I0
tp2080
bS'4047'
p2081
tp2082
Rp2083
ag2
(g3
(S'S4'
p2084
I0
I1
tp2085
Rp2086
(I3
S'|'
p2087
NNNI4
I1
I0
tp2088
bS'4171'
p2089
tp2090
Rp2091
ag2
(g3
(S'S4'
p2092
I0
I1
tp2093
Rp2094
(I3
S'|'
p2095
NNNI4
I1
I0
tp2096
bS'1171'
p2097
tp2098
Rp2099
ag2
(g3
(S'S4'
p2100
I0
I1
tp2101
Rp2102
(I3
S'|'
p2103
NNNI4
I1
I0
tp2104
bS'0086'
p2105
tp2106
Rp2107
ag2
(g3
(S'S4'
p2108
I0
I1
tp2109
Rp2110
(I3
S'|'
p2111
NNNI4
I1
I0
tp2112
bS'3444'
p2113
tp2114
Rp2115
ag2
(g3
(S'S4'
p2116
I0
I1
tp2117
Rp2118
(I3
S'|'
p2119
NNNI4
I1
I0
tp2120
bS'3950'
p2121
tp2122
Rp2123
ag2
(g3
(S'S4'
p2124
I0
I1
tp2125
Rp2126
(I3
S'|'
p2127
NNNI4
I1
I0
tp2128
bS'0854'
p2129
tp2130
Rp2131
ag2
(g3
(S'S4'
p2132
I0
I1
tp2133
Rp2134
(I3
S'|'
p2135
NNNI4
I1
I0
tp2136
bS'3031'
p2137
tp2138
Rp2139
ag2
(g3
(S'S4'
p2140
I0
I1
tp2141
Rp2142
(I3
S'|'
p2143
NNNI4
I1
I0
tp2144
bS'4149'
p2145
tp2146
Rp2147
ag2
(g3
(S'S4'
p2148
I0
I1
tp2149
Rp2150
(I3
S'|'
p2151
NNNI4
I1
I0
tp2152
bS'0298'
p2153
tp2154
Rp2155
ag2
(g3
(S'S4'
p2156
I0
I1
tp2157
Rp2158
(I3
S'|'
p2159
NNNI4
I1
I0
tp2160
bS'0114'
p2161
tp2162
Rp2163
ag2
(g3
(S'S4'
p2164
I0
I1
tp2165
Rp2166
(I3
S'|'
p2167
NNNI4
I1
I0
tp2168
bS'3961'
p2169
tp2170
Rp2171
ag2
(g3
(S'S4'
p2172
I0
I1
tp2173
Rp2174
(I3
S'|'
p2175
NNNI4
I1
I0
tp2176
bS'2184'
p2177
tp2178
Rp2179
ag2
(g3
(S'S4'
p2180
I0
I1
tp2181
Rp2182
(I3
S'|'
p2183
NNNI4
I1
I0
tp2184
bS'4226'
p2185
tp2186
Rp2187
ag2
(g3
(S'S4'
p2188
I0
I1
tp2189
Rp2190
(I3
S'|'
p2191
NNNI4
I1
I0
tp2192
bS'1916'
p2193
tp2194
Rp2195
asI17
(lp2196
g2
(g3
(S'S4'
p2197
I0
I1
tp2198
Rp2199
(I3
S'|'
p2200
NNNI4
I1
I0
tp2201
bS'0383'
p2202
tp2203
Rp2204
ag2
(g3
(S'S4'
p2205
I0
I1
tp2206
Rp2207
(I3
S'|'
p2208
NNNI4
I1
I0
tp2209
bS'2878'
p2210
tp2211
Rp2212
ag2
(g3
(S'S4'
p2213
I0
I1
tp2214
Rp2215
(I3
S'|'
p2216
NNNI4
I1
I0
tp2217
bS'3769'
p2218
tp2219
Rp2220
ag2
(g3
(S'S4'
p2221
I0
I1
tp2222
Rp2223
(I3
S'|'
p2224
NNNI4
I1
I0
tp2225
bS'2310'
p2226
tp2227
Rp2228
ag2
(g3
(S'S4'
p2229
I0
I1
tp2230
Rp2231
(I3
S'|'
p2232
NNNI4
I1
I0
tp2233
bS'0830'
p2234
tp2235
Rp2236
ag2
(g3
(S'S4'
p2237
I0
I1
tp2238
Rp2239
(I3
S'|'
p2240
NNNI4
I1
I0
tp2241
bS'2855'
p2242
tp2243
Rp2244
ag2
(g3
(S'S4'
p2245
I0
I1
tp2246
Rp2247
(I3
S'|'
p2248
NNNI4
I1
I0
tp2249
bS'2959'
p2250
tp2251
Rp2252
ag2
(g3
(S'S4'
p2253
I0
I1
tp2254
Rp2255
(I3
S'|'
p2256
NNNI4
I1
I0
tp2257
bS'4084'
p2258
tp2259
Rp2260
ag2
(g3
(S'S4'
p2261
I0
I1
tp2262
Rp2263
(I3
S'|'
p2264
NNNI4
I1
I0
tp2265
bS'4076'
p2266
tp2267
Rp2268
ag2
(g3
(S'S4'
p2269
I0
I1
tp2270
Rp2271
(I3
S'|'
p2272
NNNI4
I1
I0
tp2273
bS'0943'
p2274
tp2275
Rp2276
ag2
(g3
(S'S4'
p2277
I0
I1
tp2278
Rp2279
(I3
S'|'
p2280
NNNI4
I1
I0
tp2281
bS'3438'
p2282
tp2283
Rp2284
ag2
(g3
(S'S4'
p2285
I0
I1
tp2286
Rp2287
(I3
S'|'
p2288
NNNI4
I1
I0
tp2289
bS'3779'
p2290
tp2291
Rp2292
ag2
(g3
(S'S4'
p2293
I0
I1
tp2294
Rp2295
(I3
S'|'
p2296
NNNI4
I1
I0
tp2297
bS'2847'
p2298
tp2299
Rp2300
ag2
(g3
(S'S4'
p2301
I0
I1
tp2302
Rp2303
(I3
S'|'
p2304
NNNI4
I1
I0
tp2305
bS'1180'
p2306
tp2307
Rp2308
ag2
(g3
(S'S4'
p2309
I0
I1
tp2310
Rp2311
(I3
S'|'
p2312
NNNI4
I1
I0
tp2313
bS'2377'
p2314
tp2315
Rp2316
ag2
(g3
(S'S4'
p2317
I0
I1
tp2318
Rp2319
(I3
S'|'
p2320
NNNI4
I1
I0
tp2321
bS'0503'
p2322
tp2323
Rp2324
asI18
(lp2325
g2
(g3
(S'S4'
p2326
I0
I1
tp2327
Rp2328
(I3
S'|'
p2329
NNNI4
I1
I0
tp2330
bS'0542'
p2331
tp2332
Rp2333
ag2
(g3
(S'S4'
p2334
I0
I1
tp2335
Rp2336
(I3
S'|'
p2337
NNNI4
I1
I0
tp2338
bS'0943'
p2339
tp2340
Rp2341
ag2
(g3
(S'S4'
p2342
I0
I1
tp2343
Rp2344
(I3
S'|'
p2345
NNNI4
I1
I0
tp2346
bS'3769'
p2347
tp2348
Rp2349
ag2
(g3
(S'S4'
p2350
I0
I1
tp2351
Rp2352
(I3
S'|'
p2353
NNNI4
I1
I0
tp2354
bS'2154'
p2355
tp2356
Rp2357
ag2
(g3
(S'S4'
p2358
I0
I1
tp2359
Rp2360
(I3
S'|'
p2361
NNNI4
I1
I0
tp2362
bS'2657'
p2363
tp2364
Rp2365
ag2
(g3
(S'S4'
p2366
I0
I1
tp2367
Rp2368
(I3
S'|'
p2369
NNNI4
I1
I0
tp2370
bS'4297'
p2371
tp2372
Rp2373
ag2
(g3
(S'S4'
p2374
I0
I1
tp2375
Rp2376
(I3
S'|'
p2377
NNNI4
I1
I0
tp2378
bS'2557'
p2379
tp2380
Rp2381
ag2
(g3
(S'S4'
p2382
I0
I1
tp2383
Rp2384
(I3
S'|'
p2385
NNNI4
I1
I0
tp2386
bS'2377'
p2387
tp2388
Rp2389
ag2
(g3
(S'S4'
p2390
I0
I1
tp2391
Rp2392
(I3
S'|'
p2393
NNNI4
I1
I0
tp2394
bS'4039'
p2395
tp2396
Rp2397
ag2
(g3
(S'S4'
p2398
I0
I1
tp2399
Rp2400
(I3
S'|'
p2401
NNNI4
I1
I0
tp2402
bS'0045'
p2403
tp2404
Rp2405
ag2
(g3
(S'S4'
p2406
I0
I1
tp2407
Rp2408
(I3
S'|'
p2409
NNNI4
I1
I0
tp2410
bS'3151'
p2411
tp2412
Rp2413
ag2
(g3
(S'S4'
p2414
I0
I1
tp2415
Rp2416
(I3
S'|'
p2417
NNNI4
I1
I0
tp2418
bS'2334'
p2419
tp2420
Rp2421
ag2
(g3
(S'S4'
p2422
I0
I1
tp2423
Rp2424
(I3
S'|'
p2425
NNNI4
I1
I0
tp2426
bS'2046'
p2427
tp2428
Rp2429
ag2
(g3
(S'S4'
p2430
I0
I1
tp2431
Rp2432
(I3
S'|'
p2433
NNNI4
I1
I0
tp2434
bS'2509'
p2435
tp2436
Rp2437
ag2
(g3
(S'S4'
p2438
I0
I1
tp2439
Rp2440
(I3
S'|'
p2441
NNNI4
I1
I0
tp2442
bS'1495'
p2443
tp2444
Rp2445
ag2
(g3
(S'S4'
p2446
I0
I1
tp2447
Rp2448
(I3
S'|'
p2449
NNNI4
I1
I0
tp2450
bS'2401'
p2451
tp2452
Rp2453
asI19
(lp2454
g2
(g3
(S'S4'
p2455
I0
I1
tp2456
Rp2457
(I3
S'|'
p2458
NNNI4
I1
I0
tp2459
bS'1540'
p2460
tp2461
Rp2462
ag2
(g3
(S'S4'
p2463
I0
I1
tp2464
Rp2465
(I3
S'|'
p2466
NNNI4
I1
I0
tp2467
bS'0832'
p2468
tp2469
Rp2470
ag2
(g3
(S'S4'
p2471
I0
I1
tp2472
Rp2473
(I3
S'|'
p2474
NNNI4
I1
I0
tp2475
bS'3278'
p2476
tp2477
Rp2478
ag2
(g3
(S'S4'
p2479
I0
I1
tp2480
Rp2481
(I3
S'|'
p2482
NNNI4
I1
I0
tp2483
bS'0510'
p2484
tp2485
Rp2486
ag2
(g3
(S'S4'
p2487
I0
I1
tp2488
Rp2489
(I3
S'|'
p2490
NNNI4
I1
I0
tp2491
bS'0856'
p2492
tp2493
Rp2494
ag2
(g3
(S'S4'
p2495
I0
I1
tp2496
Rp2497
(I3
S'|'
p2498
NNNI4
I1
I0
tp2499
bS'2258'
p2500
tp2501
Rp2502
ag2
(g3
(S'S4'
p2503
I0
I1
tp2504
Rp2505
(I3
S'|'
p2506
NNNI4
I1
I0
tp2507
bS'0750'
p2508
tp2509
Rp2510
ag2
(g3
(S'S4'
p2511
I0
I1
tp2512
Rp2513
(I3
S'|'
p2514
NNNI4
I1
I0
tp2515
bS'0067'
p2516
tp2517
Rp2518
ag2
(g3
(S'S4'
p2519
I0
I1
tp2520
Rp2521
(I3
S'|'
p2522
NNNI4
I1
I0
tp2523
bS'2036'
p2524
tp2525
Rp2526
ag2
(g3
(S'S4'
p2527
I0
I1
tp2528
Rp2529
(I3
S'|'
p2530
NNNI4
I1
I0
tp2531
bS'0992'
p2532
tp2533
Rp2534
ag2
(g3
(S'S4'
p2535
I0
I1
tp2536
Rp2537
(I3
S'|'
p2538
NNNI4
I1
I0
tp2539
bS'1028'
p2540
tp2541
Rp2542
ag2
(g3
(S'S4'
p2543
I0
I1
tp2544
Rp2545
(I3
S'|'
p2546
NNNI4
I1
I0
tp2547
bS'0900'
p2548
tp2549
Rp2550
ag2
(g3
(S'S4'
p2551
I0
I1
tp2552
Rp2553
(I3
S'|'
p2554
NNNI4
I1
I0
tp2555
bS'1844'
p2556
tp2557
Rp2558
ag2
(g3
(S'S4'
p2559
I0
I1
tp2560
Rp2561
(I3
S'|'
p2562
NNNI4
I1
I0
tp2563
bS'0587'
p2564
tp2565
Rp2566
ag2
(g3
(S'S4'
p2567
I0
I1
tp2568
Rp2569
(I3
S'|'
p2570
NNNI4
I1
I0
tp2571
bS'2799'
p2572
tp2573
Rp2574
ag2
(g3
(S'S4'
p2575
I0
I1
tp2576
Rp2577
(I3
S'|'
p2578
NNNI4
I1
I0
tp2579
bS'0619'
p2580
tp2581
Rp2582
as.